target datalayout = "e-m:e-p270:32:32-p271:32:32-p272:64:64-i64:64-i128:128-f80:128-n8:16:32:64-S128"
target triple = "x86_64-pc-linux-gnu"

%struct.bio_st = type { ptr, ptr, ptr, i32, i32, i32, i32, i32, i32, ptr, ptr, i64, i64 }
%struct.BIO_ASN1_BUF_CTX_t = type { i32, ptr, i32, i32, i32, i32, i32, i32, ptr, ptr, ptr, ptr, ptr, i32, i32, ptr }

; Function Attrs: nounwind uwtable
define internal i32 @asn1_bio_init(ptr noundef %0, i32 noundef %1) #0 {
  %3 = alloca i32, align 4
  %4 = alloca ptr, align 8
  %5 = alloca i32, align 4
  store ptr %0, ptr %4, align 8, !tbaa !24
  store i32 %1, ptr %5, align 4, !tbaa !12
  %6 = load i32, ptr %5, align 4, !tbaa !12
  %7 = sext i32 %6 to i64
  %8 = call noalias ptr @malloc(i64 noundef %7) #8
  %9 = load ptr, ptr %4, align 8, !tbaa !24
  %10 = getelementptr inbounds nuw %struct.BIO_ASN1_BUF_CTX_t, ptr %9, i32 0, i32 1
  store ptr %8, ptr %10, align 8, !tbaa !32
  %11 = load ptr, ptr %4, align 8, !tbaa !24
  %12 = getelementptr inbounds nuw %struct.BIO_ASN1_BUF_CTX_t, ptr %11, i32 0, i32 1
  %13 = load ptr, ptr %12, align 8, !tbaa !32
  %14 = icmp ne ptr %13, null
  br i1 %14, label %16, label %15

15:                                               ; preds = %2
  store i32 0, ptr %3, align 4
  br label %38

16:                                               ; preds = %2
  %17 = load i32, ptr %5, align 4, !tbaa !12
  %18 = load ptr, ptr %4, align 8, !tbaa !24
  %19 = getelementptr inbounds nuw %struct.BIO_ASN1_BUF_CTX_t, ptr %18, i32 0, i32 2
  store i32 %17, ptr %19, align 8, !tbaa !47
  %20 = load ptr, ptr %4, align 8, !tbaa !24
  %21 = getelementptr inbounds nuw %struct.BIO_ASN1_BUF_CTX_t, ptr %20, i32 0, i32 3
  store i32 0, ptr %21, align 4, !tbaa !35
  %22 = load ptr, ptr %4, align 8, !tbaa !24
  %23 = getelementptr inbounds nuw %struct.BIO_ASN1_BUF_CTX_t, ptr %22, i32 0, i32 4
  store i32 0, ptr %23, align 8, !tbaa !31
  %24 = load ptr, ptr %4, align 8, !tbaa !24
  %25 = getelementptr inbounds nuw %struct.BIO_ASN1_BUF_CTX_t, ptr %24, i32 0, i32 5
  store i32 0, ptr %25, align 4, !tbaa !34
  %26 = load ptr, ptr %4, align 8, !tbaa !24
  %27 = getelementptr inbounds nuw %struct.BIO_ASN1_BUF_CTX_t, ptr %26, i32 0, i32 6
  store i32 0, ptr %27, align 8, !tbaa !33
  %28 = load ptr, ptr %4, align 8, !tbaa !24
  %29 = getelementptr inbounds nuw %struct.BIO_ASN1_BUF_CTX_t, ptr %28, i32 0, i32 7
  store i32 4, ptr %29, align 4, !tbaa !30
  %30 = load ptr, ptr %4, align 8, !tbaa !24
  %31 = getelementptr inbounds nuw %struct.BIO_ASN1_BUF_CTX_t, ptr %30, i32 0, i32 12
  store ptr null, ptr %31, align 8, !tbaa !45
  %32 = load ptr, ptr %4, align 8, !tbaa !24
  %33 = getelementptr inbounds nuw %struct.BIO_ASN1_BUF_CTX_t, ptr %32, i32 0, i32 14
  store i32 0, ptr %33, align 4, !tbaa !46
  %34 = load ptr, ptr %4, align 8, !tbaa !24
  %35 = getelementptr inbounds nuw %struct.BIO_ASN1_BUF_CTX_t, ptr %34, i32 0, i32 13
  store i32 0, ptr %35, align 8, !tbaa !44
  %36 = load ptr, ptr %4, align 8, !tbaa !24
  %37 = getelementptr inbounds nuw %struct.BIO_ASN1_BUF_CTX_t, ptr %36, i32 0, i32 0
  store i32 0, ptr %37, align 8, !tbaa !26
  store i32 1, ptr %3, align 4
  br label %38

38:                                               ; preds = %16, %15
  %39 = load i32, ptr %3, align 4
  ret i32 %39
}

; Function Attrs: nounwind uwtable
define internal i32 @asn1_bio_new(ptr noundef %0) #0 {
  %2 = alloca i32, align 4
  %3 = alloca ptr, align 8
  %4 = alloca ptr, align 8
  %5 = alloca i32, align 4
  store ptr %0, ptr %3, align 8, !tbaa !6
  call void @llvm.lifetime.start.p0(i64 8, ptr %4) #6
  %6 = call noalias ptr @malloc(i64 noundef 96) #8
  store ptr %6, ptr %4, align 8, !tbaa !24
  %7 = load ptr, ptr %4, align 8, !tbaa !24
  %8 = icmp ne ptr %7, null
  br i1 %8, label %10, label %9

9:                                                ; preds = %1
  store i32 0, ptr %2, align 4
  store i32 1, ptr %5, align 4
  br label %24

10:                                               ; preds = %1
  %11 = load ptr, ptr %4, align 8, !tbaa !24
  %12 = call i32 @asn1_bio_init(ptr noundef %11, i32 noundef 20)
  %13 = icmp ne i32 %12, 0
  br i1 %13, label %16, label %14

14:                                               ; preds = %10
  %15 = load ptr, ptr %4, align 8, !tbaa !24
  call void @free(ptr noundef %15) #6
  store i32 0, ptr %2, align 4
  store i32 1, ptr %5, align 4
  br label %24

16:                                               ; preds = %10
  %17 = load ptr, ptr %3, align 8, !tbaa !6
  %18 = getelementptr inbounds nuw %struct.bio_st, ptr %17, i32 0, i32 3
  store i32 1, ptr %18, align 8, !tbaa !42
  %19 = load ptr, ptr %4, align 8, !tbaa !24
  %20 = load ptr, ptr %3, align 8, !tbaa !6
  %21 = getelementptr inbounds nuw %struct.bio_st, ptr %20, i32 0, i32 9
  store ptr %19, ptr %21, align 8, !tbaa !23
  %22 = load ptr, ptr %3, align 8, !tbaa !6
  %23 = getelementptr inbounds nuw %struct.bio_st, ptr %22, i32 0, i32 5
  store i32 0, ptr %23, align 8, !tbaa !43
  store i32 1, ptr %2, align 4
  store i32 1, ptr %5, align 4
  br label %24

24:                                               ; preds = %16, %14, %9
  call void @llvm.lifetime.end.p0(i64 8, ptr %4) #6
  %25 = load i32, ptr %2, align 4
  ret i32 %25
}