; Function Attrs: mustprogress nounwind willreturn memory(readwrite, argmem: write) uwtable
define internal range(i32 0, 2) i32 @asn1_bio_new(ptr noundef writeonly captures(none) %0) #2 {
  %2 = tail call noalias dereferenceable_or_null(96) ptr @malloc(i64 noundef 96) #13
  %.not = icmp eq ptr %2, null
  br i1 %.not, label %15, label %3

3:                                                ; preds = %1
  %4 = tail call noalias dereferenceable_or_null(20) ptr @malloc(i64 noundef 20) #13
  %5 = getelementptr inbounds nuw i8, ptr %2, i64 8
  store ptr %4, ptr %5, align 8, !tbaa !30
  %.not.i = icmp eq ptr %4, null
  br i1 %.not.i, label %6, label %7

6:                                                ; preds = %3
  tail call void @free(ptr noundef nonnull %2) #11
  br label %15

7:                                                ; preds = %3
  %8 = getelementptr inbounds nuw i8, ptr %2, i64 16
  store i32 20, ptr %8, align 8, !tbaa !38
  %9 = getelementptr inbounds nuw i8, ptr %2, i64 20
  %10 = getelementptr inbounds nuw i8, ptr %2, i64 36
  tail call void @llvm.memset.p0.i64(ptr noundef nonnull align 4 dereferenceable(16) %9, i8 0, i64 16, i1 false)
  store i32 4, ptr %10, align 4, !tbaa !28
  %11 = getelementptr inbounds nuw i8, ptr %2, i64 72
  store i32 0, ptr %2, align 8, !tbaa !21
  tail call void @llvm.memset.p0.i64(ptr noundef nonnull align 8 dereferenceable(16) %11, i8 0, i64 16, i1 false)
  %12 = getelementptr inbounds nuw i8, ptr %0, i64 24
  store i32 1, ptr %12, align 8, !tbaa !39
  %13 = getelementptr inbounds nuw i8, ptr %0, i64 48
  store ptr %2, ptr %13, align 8, !tbaa !20
  %14 = getelementptr inbounds nuw i8, ptr %0, i64 32
  store i32 0, ptr %14, align 8, !tbaa !40
  br label %15

15:                                               ; preds = %1, %7, %6
  %.0 = phi i32 [ 1, %7 ], [ 0, %6 ], [ 0, %1 ]
  ret i32 %.0
}